target datalayout = "e-m:e-p270:32:32-p271:32:32-p272:64:64-i64:64-i128:128-f80:128-n8:16:32:64-S128"
target triple = "x86_64-pc-linux-gnu"

%"class.icu_77::UObject" = type { ptr }
%"class.icu_77::ListFormatter" = type { %"class.icu_77::UObject", ptr, ptr }

@_ZTVN6icu_7713ListFormatterE = unnamed_addr constant { [5 x ptr] } { [5 x ptr] [ptr null, ptr @_ZTIN6icu_7713ListFormatterE, ptr @_ZN6icu_7713ListFormatterD1Ev, ptr @_ZN6icu_7713ListFormatterD0Ev, ptr @_ZNK6icu_777UObject17getDynamicClassIDEv] }, align 8
@_ZTVN6icu_777UObjectE = available_externally unnamed_addr constant { [5 x ptr] } { [5 x ptr] [ptr null, ptr @_ZTIN6icu_777UObjectE, ptr @_ZN6icu_777UObjectD1Ev, ptr @_ZN6icu_777UObjectD0Ev, ptr @_ZNK6icu_777UObject17getDynamicClassIDEv] }, align 8

; Function Attrs: inlinehint mustprogress nounwind uwtable
define linkonce_odr void @_ZN6icu_777UObjectC2Ev(ptr noundef nonnull align 8 dereferenceable(8) %0) unnamed_addr #2 comdat align 2 {
  %2 = alloca ptr, align 8
  store ptr %0, ptr %2, align 8, !tbaa !46
  %3 = load ptr, ptr %2, align 8
  store ptr getelementptr inbounds inrange(-16, 24) ({ [5 x ptr] }, ptr @_ZTVN6icu_777UObjectE, i32 0, i32 0, i32 2), ptr %3, align 8, !tbaa !27
  ret void
}

; Function Attrs: mustprogress uwtable
define void @_ZN6icu_7713ListFormatterC2ERKNS_14ListFormatDataER10UErrorCode(ptr noundef nonnull align 8 dereferenceable(24) %0, ptr noundef nonnull align 8 dereferenceable(488) %1, ptr noundef nonnull align 4 dereferenceable(4) %2) unnamed_addr #1 align 2 personality ptr @__gxx_personality_v0 {
  %4 = alloca ptr, align 8
  %5 = alloca ptr, align 8
  %6 = alloca ptr, align 8
  %7 = alloca i1, align 1
  %8 = alloca ptr, align 8
  %9 = alloca i32, align 4
  store ptr %0, ptr %4, align 8, !tbaa !39
  store ptr %1, ptr %5, align 8, !tbaa !84
  store ptr %2, ptr %6, align 8, !tbaa !22
  %10 = load ptr, ptr %4, align 8
  call void @_ZN6icu_777UObjectC2Ev(ptr noundef nonnull align 8 dereferenceable(8) %10) #12
  store ptr getelementptr inbounds inrange(-16, 24) ({ [5 x ptr] }, ptr @_ZTVN6icu_7713ListFormatterE, i32 0, i32 0, i32 2), ptr %10, align 8, !tbaa !27
  %11 = call noundef ptr @_ZN6icu_777UMemorynwEm(i64 noundef 160) #12
  %12 = icmp eq ptr %11, null
  store i1 false, ptr %7, align 1
  br i1 %12, label %17, label %13

13:                                               ; preds = %3
  store i1 true, ptr %7, align 1
  %14 = load ptr, ptr %5, align 8, !tbaa !84
  %15 = load ptr, ptr %6, align 8, !tbaa !22
  invoke void @_ZN6icu_7718ListFormatInternalC2ERKNS_14ListFormatDataER10UErrorCode(ptr noundef nonnull align 8 dereferenceable(160) %11, ptr noundef nonnull align 8 dereferenceable(488) %14, ptr noundef nonnull align 4 dereferenceable(4) %15)
          to label %16 unwind label %23

16:                                               ; preds = %13
  br label %17

17:                                               ; preds = %16, %3
  %18 = phi ptr [ %11, %16 ], [ null, %3 ]
  %19 = getelementptr inbounds nuw %"class.icu_77::ListFormatter", ptr %10, i32 0, i32 1
  store ptr %18, ptr %19, align 8, !tbaa !41
  %20 = getelementptr inbounds nuw %"class.icu_77::ListFormatter", ptr %10, i32 0, i32 1
  %21 = load ptr, ptr %20, align 8, !tbaa !41
  %22 = getelementptr inbounds nuw %"class.icu_77::ListFormatter", ptr %10, i32 0, i32 2
  store ptr %21, ptr %22, align 8, !tbaa !45
  ret void

23:                                               ; preds = %13
  %24 = landingpad { ptr, i32 }
          cleanup
  %25 = extractvalue { ptr, i32 } %24, 0
  store ptr %25, ptr %8, align 8
  %26 = extractvalue { ptr, i32 } %24, 1
  store i32 %26, ptr %9, align 4
  %27 = load i1, ptr %7, align 1
  br i1 %27, label %28, label %29

28:                                               ; preds = %23
  call void @_ZN6icu_777UMemorydlEPv(ptr noundef %11) #12
  br label %29

29:                                               ; preds = %28, %23
  call void @_ZN6icu_777UObjectD2Ev(ptr noundef nonnull align 8 dereferenceable(8) %10) #12
  br label %30

30:                                               ; preds = %29
  %31 = load ptr, ptr %8, align 8
  %32 = load i32, ptr %9, align 4
  %33 = insertvalue { ptr, i32 } poison, ptr %31, 0
  %34 = insertvalue { ptr, i32 } %33, i32 %32, 1
  resume { ptr, i32 } %34
}