; Function Attrs: mustprogress uwtable
define void @_ZN6icu_7713ListFormatterC2ERKNS_14ListFormatDataER10UErrorCode(ptr noundef nonnull align 8 dereferenceable(24) initializes((0, 8)) %0, ptr noundef nonnull align 8 dereferenceable(488) %1, ptr noundef nonnull align 4 dereferenceable(4) %2) unnamed_addr #1 align 2 personality ptr @__gxx_personality_v0 {
  store ptr getelementptr inbounds nuw inrange(-16, 24) (i8, ptr @_ZTVN6icu_7713ListFormatterE, i64 16), ptr %0, align 8, !tbaa !15
  %4 = tail call noundef ptr @_ZN6icu_777UMemorynwEm(i64 noundef 160) #19
  %5 = icmp eq ptr %4, null
  br i1 %5, label %7, label %6

6:                                                ; preds = %3
  invoke void @_ZN6icu_7718ListFormatInternalC2ERKNS_14ListFormatDataER10UErrorCode(ptr noundef nonnull align 8 dereferenceable(160) %4, ptr noundef nonnull align 8 dereferenceable(488) %1, ptr noundef nonnull align 4 dereferenceable(4) %2)
          to label %7 unwind label %10

7:                                                ; preds = %6, %3
  %8 = getelementptr inbounds nuw i8, ptr %0, i64 8
  store ptr %4, ptr %8, align 8, !tbaa !35
  %9 = getelementptr inbounds nuw i8, ptr %0, i64 16
  store ptr %4, ptr %9, align 8, !tbaa !39
  ret void

10:                                               ; preds = %6
  %11 = landingpad { ptr, i32 }
          cleanup
  tail call void @_ZN6icu_777UMemorydlEPv(ptr noundef nonnull %4) #19
  tail call void @_ZN6icu_777UObjectD2Ev(ptr noundef nonnull align 8 dereferenceable(8) %0) #19
  resume { ptr, i32 } %11
}